target datalayout = "e-m:e-p270:32:32-p271:32:32-p272:64:64-i64:64-i128:128-f80:128-n8:16:32:64-S128"
target triple = "x86_64-pc-linux-gnu"

; Function Attrs: mustprogress nounwind uwtable
define void @UCNV_TO_U_CALLBACK_SKIP_77(ptr noundef %0, ptr noundef %1, ptr noundef %2, i32 noundef %3, i32 noundef %4, ptr noundef %5) #0 {
  %7 = alloca ptr, align 8
  %8 = alloca ptr, align 8
  %9 = alloca ptr, align 8
  %10 = alloca i32, align 4
  %11 = alloca i32, align 4
  %12 = alloca ptr, align 8
  store ptr %0, ptr %7, align 8, !tbaa !3
  store ptr %1, ptr %8, align 8, !tbaa !3
  store ptr %2, ptr %9, align 8, !tbaa !15
  store i32 %3, ptr %10, align 4, !tbaa !9
  store i32 %4, ptr %11, align 4, !tbaa !11
  store ptr %5, ptr %12, align 8, !tbaa !3
  %13 = load i32, ptr %11, align 4, !tbaa !11
  %14 = icmp sle i32 %13, 2
  br i1 %14, label %15, label %29

15:                                               ; preds = %6
  %16 = load ptr, ptr %7, align 8, !tbaa !3
  %17 = icmp eq ptr %16, null
  br i1 %17, label %26, label %18

18:                                               ; preds = %15
  %19 = load ptr, ptr %7, align 8, !tbaa !3
  %20 = load i8, ptr %19, align 1, !tbaa !17
  %21 = sext i8 %20 to i32
  %22 = icmp eq i32 %21, 105
  br i1 %22, label %23, label %28

23:                                               ; preds = %18
  %24 = load i32, ptr %11, align 4, !tbaa !11
  %25 = icmp eq i32 %24, 0
  br i1 %25, label %26, label %28

26:                                               ; preds = %23, %15
  %27 = load ptr, ptr %12, align 8, !tbaa !3
  store i32 0, ptr %27, align 4, !tbaa !13
  br label %28

28:                                               ; preds = %26, %23, %18
  br label %29

29:                                               ; preds = %28, %6
  ret void
}